; Function Attrs: mustprogress uwtable
define internal noundef zeroext i1 @"_ZNSt17_Function_handlerIFbRKN32pxrInternal_v0_24__pxrReserved__7TfTokenEEZNS0_22UsdShadeShaderDefUtils23GetNodeDiscoveryResultsERKNS0_14UsdShadeShaderERKNSt7__cxx1112basic_stringIcSt11char_traitsIcESaIcEEEE3$_0E9_M_invokeERKSt9_Any_dataS3_"(ptr nocapture nonnull readnone align 8 %0, ptr nocapture noundef nonnull readonly align 8 dereferenceable(8) %1) #0 align 2 personality ptr @__gxx_personality_v0 {
  %.val = load ptr, ptr %1, align 8
  %3 = ptrtoint ptr %.val to i64
  %4 = and i64 %3, -8
  %.not.i.i.i.i = icmp eq i64 %4, 0
  br i1 %.not.i.i.i.i, label %8, label %5

5:                                                ; preds = %2
  %6 = inttoptr i64 %4 to ptr
  %7 = getelementptr inbounds nuw i8, ptr %6, i64 16
  br label %_ZNK32pxrInternal_v0_24__pxrReserved__7TfToken9GetStringB5cxx11Ev.exit.i.i.i

8:                                                ; preds = %2
  %9 = tail call noundef nonnull align 8 dereferenceable(32) ptr @_ZN32pxrInternal_v0_24__pxrReserved__7TfToken15_GetEmptyStringB5cxx11Ev()
  br label %_ZNK32pxrInternal_v0_24__pxrReserved__7TfToken9GetStringB5cxx11Ev.exit.i.i.i

_ZNK32pxrInternal_v0_24__pxrReserved__7TfToken9GetStringB5cxx11Ev.exit.i.i.i: ; preds = %8, %5
  %10 = phi ptr [ %7, %5 ], [ %9, %8 ]
  %11 = tail call noundef ptr @_ZNKSt7__cxx1112basic_stringIcSt11char_traitsIcESaIcEE5c_strEv(ptr noundef nonnull align 8 dereferenceable(32) @_ZZN32pxrInternal_v0_24__pxrReserved__22UsdShadeShaderDefUtils23GetNodeDiscoveryResultsERKNS_14UsdShadeShaderERKNSt7__cxx1112basic_stringIcSt11char_traitsIcESaIcEEEE13infoNamespaceB5cxx11) #20
  %12 = tail call noundef ptr @_ZNKSt7__cxx1112basic_stringIcSt11char_traitsIcESaIcEE5c_strEv(ptr noundef nonnull align 8 dereferenceable(32) %10) #20
  %13 = tail call noundef i64 @_ZNKSt7__cxx1112basic_stringIcSt11char_traitsIcESaIcEE6lengthEv(ptr noundef nonnull align 8 dereferenceable(32) %10) #20
  %14 = tail call i64 @strlen(ptr noundef nonnull dereferenceable(1) %11) #23
  %.not.i.i.i.i.i.i = icmp ult i64 %13, %14
  br i1 %.not.i.i.i.i.i.i, label %"_ZSt10__invoke_rIbRZN32pxrInternal_v0_24__pxrReserved__22UsdShadeShaderDefUtils23GetNodeDiscoveryResultsERKNS0_14UsdShadeShaderERKNSt7__cxx1112basic_stringIcSt11char_traitsIcESaIcEEEE3$_0JRKNS0_7TfTokenEEENSt9enable_ifIX16is_invocable_r_vIT_T0_DpT1_EESJ_E4typeEOSK_DpOSL_.exit", label %_ZN32pxrInternal_v0_24__pxrReserved__18TfStringStartsWithERKNSt7__cxx1112basic_stringIcSt11char_traitsIcESaIcEEES7_.exit.i.i.i

_ZN32pxrInternal_v0_24__pxrReserved__18TfStringStartsWithERKNSt7__cxx1112basic_stringIcSt11char_traitsIcESaIcEEES7_.exit.i.i.i: ; preds = %_ZNK32pxrInternal_v0_24__pxrReserved__7TfToken9GetStringB5cxx11Ev.exit.i.i.i
  %15 = tail call i32 @strncmp(ptr noundef %12, ptr noundef %11, i64 noundef %14) #23
  %16 = icmp eq i32 %15, 0
  br i1 %16, label %17, label %"_ZSt10__invoke_rIbRZN32pxrInternal_v0_24__pxrReserved__22UsdShadeShaderDefUtils23GetNodeDiscoveryResultsERKNS0_14UsdShadeShaderERKNSt7__cxx1112basic_stringIcSt11char_traitsIcESaIcEEEE3$_0JRKNS0_7TfTokenEEENSt9enable_ifIX16is_invocable_r_vIT_T0_DpT1_EESJ_E4typeEOSK_DpOSL_.exit"

17:                                               ; preds = %_ZN32pxrInternal_v0_24__pxrReserved__18TfStringStartsWithERKNSt7__cxx1112basic_stringIcSt11char_traitsIcESaIcEEES7_.exit.i.i.i
  %18 = tail call noundef ptr @_ZNKSt7__cxx1112basic_stringIcSt11char_traitsIcESaIcEE5c_strEv(ptr noundef nonnull align 8 dereferenceable(32) @_ZZN32pxrInternal_v0_24__pxrReserved__22UsdShadeShaderDefUtils23GetNodeDiscoveryResultsERKNS_14UsdShadeShaderERKNSt7__cxx1112basic_stringIcSt11char_traitsIcESaIcEEEE15baseSourceAssetB5cxx11) #20
  %19 = tail call noundef ptr @_ZNKSt7__cxx1112basic_stringIcSt11char_traitsIcESaIcEE5c_strEv(ptr noundef nonnull align 8 dereferenceable(32) %10) #20
  %20 = tail call noundef i64 @_ZNKSt7__cxx1112basic_stringIcSt11char_traitsIcESaIcEE6lengthEv(ptr noundef nonnull align 8 dereferenceable(32) %10) #20
  %21 = tail call i64 @strlen(ptr noundef nonnull dereferenceable(1) %18) #23
  %.not.i.i.i3.i.i.i = icmp ult i64 %20, %21
  br i1 %.not.i.i.i3.i.i.i, label %"_ZSt10__invoke_rIbRZN32pxrInternal_v0_24__pxrReserved__22UsdShadeShaderDefUtils23GetNodeDiscoveryResultsERKNS0_14UsdShadeShaderERKNSt7__cxx1112basic_stringIcSt11char_traitsIcESaIcEEEE3$_0JRKNS0_7TfTokenEEENSt9enable_ifIX16is_invocable_r_vIT_T0_DpT1_EESJ_E4typeEOSK_DpOSL_.exit", label %22

22:                                               ; preds = %17
  %23 = sub nuw i64 %20, %21
  %24 = getelementptr inbounds i8, ptr %19, i64 %23
  %25 = tail call i32 @strcmp(ptr noundef nonnull dereferenceable(1) %24, ptr noundef nonnull dereferenceable(1) %18) #23
  %26 = icmp eq i32 %25, 0
  br label %"_ZSt10__invoke_rIbRZN32pxrInternal_v0_24__pxrReserved__22UsdShadeShaderDefUtils23GetNodeDiscoveryResultsERKNS0_14UsdShadeShaderERKNSt7__cxx1112basic_stringIcSt11char_traitsIcESaIcEEEE3$_0JRKNS0_7TfTokenEEENSt9enable_ifIX16is_invocable_r_vIT_T0_DpT1_EESJ_E4typeEOSK_DpOSL_.exit"

"_ZSt10__invoke_rIbRZN32pxrInternal_v0_24__pxrReserved__22UsdShadeShaderDefUtils23GetNodeDiscoveryResultsERKNS0_14UsdShadeShaderERKNSt7__cxx1112basic_stringIcSt11char_traitsIcESaIcEEEE3$_0JRKNS0_7TfTokenEEENSt9enable_ifIX16is_invocable_r_vIT_T0_DpT1_EESJ_E4typeEOSK_DpOSL_.exit": ; preds = %_ZNK32pxrInternal_v0_24__pxrReserved__7TfToken9GetStringB5cxx11Ev.exit.i.i.i, %_ZN32pxrInternal_v0_24__pxrReserved__18TfStringStartsWithERKNSt7__cxx1112basic_stringIcSt11char_traitsIcESaIcEEES7_.exit.i.i.i, %17, %22
  %27 = phi i1 [ false, %_ZN32pxrInternal_v0_24__pxrReserved__18TfStringStartsWithERKNSt7__cxx1112basic_stringIcSt11char_traitsIcESaIcEEES7_.exit.i.i.i ], [ false, %17 ], [ %26, %22 ], [ false, %_ZNK32pxrInternal_v0_24__pxrReserved__7TfToken9GetStringB5cxx11Ev.exit.i.i.i ]
  ret i1 %27
}